target datalayout = "e-m:e-p270:32:32-p271:32:32-p272:64:64-i64:64-i128:128-f80:128-n8:16:32:64-S128"
target triple = "x86_64-unknown-linux-gnu"

%struct.acpi_table_list = type { ptr, i32, i32, i8 }
%struct.acpi_table_header = type { [4 x i8], i32, i8, i8, [6 x i8], [8 x i8], i32, [4 x i8], i32 }
%struct.acpi_table_desc = type { i64, ptr, i32, %union.acpi_name_union, i16, i8, i16 }
%union.acpi_name_union = type { i32 }

@acpi_gbl_root_table_list = external dso_local local_unnamed_addr global %struct.acpi_table_list, align 8

; Function Attrs: fn_ret_thunk_extern nounwind null_pointer_is_valid
define dso_local i32 @acpi_tb_find_table(ptr noundef %0, ptr nocapture noundef readonly %1, ptr nocapture noundef readonly %2, ptr nocapture noundef writeonly %3) local_unnamed_addr #0 align 16 {
  %5 = alloca %struct.acpi_table_header, align 1
  call void @llvm.lifetime.start.p0(i64 36, ptr nonnull %5) #7
  call void @llvm.memset.p0.i64(ptr noundef nonnull align 1 dereferenceable(36) %5, i8 0, i64 36, i1 false), !annotation !5
  %6 = tail call zeroext i8 @acpi_ut_valid_nameseg(ptr noundef %0) #7
  %7 = icmp eq i8 %6, 0
  br i1 %7, label %72, label %8

8:                                                ; preds = %4
  %9 = tail call i64 @strlen(ptr noundef %1) #7
  %10 = icmp ugt i64 %9, 6
  br i1 %10, label %72, label %11

11:                                               ; preds = %8
  %12 = tail call i64 @strlen(ptr noundef %2) #7
  %13 = icmp ugt i64 %12, 8
  br i1 %13, label %72, label %14

14:                                               ; preds = %11
  call void @llvm.memset.p0.i64(ptr noundef nonnull align 1 dereferenceable(36) %5, i8 0, i64 36, i1 false)
  %15 = load i32, ptr %0, align 4
  store i32 %15, ptr %5, align 4
  %16 = getelementptr inbounds i8, ptr %5, i64 10
  %17 = call ptr @strncpy(ptr noundef %16, ptr noundef %1, i64 noundef 6) #7
  %18 = getelementptr inbounds i8, ptr %5, i64 16
  %19 = call ptr @strncpy(ptr noundef %18, ptr noundef %2, i64 noundef 8) #7
  %20 = call i32 @acpi_ut_acquire_mutex(i32 noundef 2) #7
  %21 = load i32, ptr getelementptr inbounds (%struct.acpi_table_list, ptr @acpi_gbl_root_table_list, i64 0, i32 1), align 8
  %22 = icmp eq i32 %21, 0
  br i1 %22, label %69, label %23

23:                                               ; preds = %64, %14
  %24 = phi i64 [ %65, %64 ], [ 0, %14 ]
  %25 = load ptr, ptr @acpi_gbl_root_table_list, align 8
  %26 = getelementptr %struct.acpi_table_desc, ptr %25, i64 %24
  %27 = getelementptr inbounds i8, ptr %26, i64 20
  %28 = call i32 @bcmp(ptr noundef dereferenceable(4) %27, ptr noundef nonnull dereferenceable(4) %5, i64 4)
  %29 = icmp eq i32 %28, 0
  br i1 %29, label %30, label %64

30:                                               ; preds = %23
  %31 = getelementptr inbounds i8, ptr %26, i64 8
  %32 = load ptr, ptr %31, align 8
  %33 = icmp eq ptr %32, null
  br i1 %33, label %34, label %42

34:                                               ; preds = %30
  %35 = call i32 @acpi_tb_validate_table(ptr noundef %26) #7
  %36 = icmp eq i32 %35, 0
  br i1 %36, label %37, label %69

37:                                               ; preds = %34
  %38 = load ptr, ptr @acpi_gbl_root_table_list, align 8
  %39 = getelementptr %struct.acpi_table_desc, ptr %38, i64 %24, i32 1
  %40 = load ptr, ptr %39, align 8
  %41 = icmp eq ptr %40, null
  br i1 %41, label %64, label %42

42:                                               ; preds = %37, %30
  %43 = load ptr, ptr @acpi_gbl_root_table_list, align 8
  %44 = getelementptr %struct.acpi_table_desc, ptr %43, i64 %24, i32 1
  %45 = load ptr, ptr %44, align 8
  %46 = call i32 @bcmp(ptr noundef dereferenceable(4) %45, ptr noundef nonnull dereferenceable(4) %5, i64 4)
  %47 = icmp eq i32 %46, 0
  br i1 %47, label %48, label %64

48:                                               ; preds = %42
  %49 = load i8, ptr %1, align 1
  %50 = icmp eq i8 %49, 0
  br i1 %50, label %55, label %51

51:                                               ; preds = %48
  %52 = getelementptr inbounds i8, ptr %45, i64 10
  %53 = call i32 @bcmp(ptr noundef dereferenceable(6) %52, ptr noundef dereferenceable(6) %16, i64 6)
  %54 = icmp eq i32 %53, 0
  br i1 %54, label %55, label %64

55:                                               ; preds = %51, %48
  %56 = load i8, ptr %2, align 1
  %57 = icmp eq i8 %56, 0
  br i1 %57, label %62, label %58

58:                                               ; preds = %55
  %59 = getelementptr inbounds i8, ptr %45, i64 16
  %60 = call i32 @bcmp(ptr noundef dereferenceable(8) %59, ptr noundef dereferenceable(8) %18, i64 8)
  %61 = icmp eq i32 %60, 0
  br i1 %61, label %62, label %64

62:                                               ; preds = %58, %55
  %63 = trunc i64 %24 to i32
  store i32 %63, ptr %3, align 4
  br label %69

64:                                               ; preds = %58, %51, %42, %37, %23
  %65 = add nuw nsw i64 %24, 1
  %66 = load i32, ptr getelementptr inbounds (%struct.acpi_table_list, ptr @acpi_gbl_root_table_list, i64 0, i32 1), align 8
  %67 = zext i32 %66 to i64
  %68 = icmp ult i64 %65, %67
  br i1 %68, label %23, label %69, !llvm.loop !6

69:                                               ; preds = %64, %62, %34, %14
  %70 = phi i32 [ 0, %62 ], [ 5, %14 ], [ 5, %64 ], [ %35, %34 ]
  %71 = call i32 @acpi_ut_release_mutex(i32 noundef 2) #7
  br label %72

72:                                               ; preds = %69, %11, %8, %4
  %73 = phi i32 [ %70, %69 ], [ 8193, %4 ], [ 12305, %11 ], [ 12305, %8 ]
  call void @llvm.lifetime.end.p0(i64 36, ptr nonnull %5) #7
  ret i32 %73
}

; Function Attrs: nocallback nofree nosync nounwind willreturn memory(argmem: readwrite)
declare void @llvm.lifetime.start.p0(i64 immarg, ptr nocapture) #1

; Function Attrs: nocallback nofree nounwind willreturn memory(argmem: write)
declare void @llvm.memset.p0.i64(ptr nocapture writeonly, i8, i64, i1 immarg) #2

; Function Attrs: null_pointer_is_valid
declare dso_local zeroext i8 @acpi_ut_valid_nameseg(ptr noundef) local_unnamed_addr #3

; Function Attrs: mustprogress nofree nounwind null_pointer_is_valid willreturn memory(argmem: read)
declare dso_local i64 @strlen(ptr nocapture noundef) local_unnamed_addr #4

; Function Attrs: mustprogress nofree nounwind null_pointer_is_valid willreturn memory(argmem: readwrite)
declare dso_local ptr @strncpy(ptr noalias noundef returned writeonly, ptr noalias nocapture noundef readonly, i64 noundef) local_unnamed_addr #5

; Function Attrs: null_pointer_is_valid
declare dso_local i32 @acpi_ut_acquire_mutex(i32 noundef) local_unnamed_addr #3

; Function Attrs: null_pointer_is_valid
declare dso_local i32 @acpi_tb_validate_table(ptr noundef) local_unnamed_addr #3

; Function Attrs: null_pointer_is_valid
declare dso_local i32 @acpi_ut_release_mutex(i32 noundef) local_unnamed_addr #3

; Function Attrs: nocallback nofree nosync nounwind willreturn memory(argmem: readwrite)
declare void @llvm.lifetime.end.p0(i64 immarg, ptr nocapture) #1

; Function Attrs: nofree nounwind willreturn memory(argmem: read)
declare i32 @bcmp(ptr nocapture, ptr nocapture, i64) local_unnamed_addr #6


!llvm.module.flags = !{!0, !1, !2, !3, !4}

!0 = !{i32 1, !"wchar_size", i32 2}
!1 = !{i32 8, !"cf-protection-branch", i32 1}
!2 = !{i32 4, !"function_return_thunk_extern", i32 1}
!3 = !{i32 4, !"indirect_branch_cs_prefix", i32 1}
!4 = !{i32 4, !"SkipRaxSetup", i32 1}
!5 = !{!"auto-init"}
!6 = distinct !{!6, !7, !8}
!7 = !{!"llvm.loop.mustprogress"}
!8 = !{!"llvm.loop.unroll.disable"}
